target datalayout = "e-m:e-p270:32:32-p271:32:32-p272:64:64-i64:64-i128:128-f80:128-n8:16:32:64-S128"
target triple = "x86_64-pc-linux-gnu"

%"class.std::__cxx11::basic_string" = type { %"struct.std::__cxx11::basic_string<char>::_Alloc_hider", i64, %union.anon }
%"struct.std::__cxx11::basic_string<char>::_Alloc_hider" = type { ptr }
%union.anon = type { i64, [8 x i8] }
%"class.llvm::StringRef" = type { ptr, i64 }
%"struct.clang::installapi::DylibVerifier::SymbolContext" = type <{ %"class.std::__cxx11::basic_string", i8, [7 x i8], ptr, i8, i8, [6 x i8] }>
%"class.clang::installapi::DylibVerifier" = type { %"class.llvm::MachO::RecordVisitor", %"class.llvm::SmallVector", %"class.llvm::SmallVector.0", %"class.std::map", i32, i8, i8, %"class.llvm::StringRef", %"class.std::unique_ptr", %"class.llvm::StringMap", %"struct.clang::installapi::DylibVerifier::VerifierContext", ptr, %"class.llvm::SmallVector.10" }
%"class.llvm::MachO::RecordVisitor" = type { ptr }
%"class.llvm::SmallVector" = type { %"class.llvm::SmallVectorImpl", %"struct.llvm::SmallVectorStorage" }
%"class.llvm::SmallVectorImpl" = type { %"class.llvm::SmallVectorTemplateBase" }
%"class.llvm::SmallVectorTemplateBase" = type { %"class.llvm::SmallVectorTemplateCommon" }
%"class.llvm::SmallVectorTemplateCommon" = type { %"class.llvm::SmallVectorBase" }
%"class.llvm::SmallVectorBase" = type { ptr, i32, i32 }
%"struct.llvm::SmallVectorStorage" = type { [64 x i8] }
%"class.llvm::SmallVector.0" = type { %"class.llvm::SmallVectorImpl.1", %"struct.llvm::SmallVectorStorage.4" }
%"class.llvm::SmallVectorImpl.1" = type { %"class.llvm::SmallVectorTemplateBase.2" }
%"class.llvm::SmallVectorTemplateBase.2" = type { %"class.llvm::SmallVectorTemplateCommon.3" }
%"class.llvm::SmallVectorTemplateCommon.3" = type { %"class.llvm::SmallVectorBase" }
%"struct.llvm::SmallVectorStorage.4" = type { [3712 x i8] }
%"class.std::map" = type { %"class.std::_Rb_tree" }
%"class.std::_Rb_tree" = type { %"struct.std::_Rb_tree<std::pair<std::__cxx11::basic_string<char>, llvm::MachO::EncodeKind>, std::pair<const std::pair<std::__cxx11::basic_string<char>, llvm::MachO::EncodeKind>, std::pair<std::__cxx11::basic_string<char>, llvm::MachO::EncodeKind>>, std::_Select1st<std::pair<const std::pair<std::__cxx11::basic_string<char>, llvm::MachO::EncodeKind>, std::pair<std::__cxx11::basic_string<char>, llvm::MachO::EncodeKind>>>, std::less<std::pair<std::__cxx11::basic_string<char>, llvm::MachO::EncodeKind>>>::_Rb_tree_impl" }
%"struct.std::_Rb_tree<std::pair<std::__cxx11::basic_string<char>, llvm::MachO::EncodeKind>, std::pair<const std::pair<std::__cxx11::basic_string<char>, llvm::MachO::EncodeKind>, std::pair<std::__cxx11::basic_string<char>, llvm::MachO::EncodeKind>>, std::_Select1st<std::pair<const std::pair<std::__cxx11::basic_string<char>, llvm::MachO::EncodeKind>, std::pair<std::__cxx11::basic_string<char>, llvm::MachO::EncodeKind>>>, std::less<std::pair<std::__cxx11::basic_string<char>, llvm::MachO::EncodeKind>>>::_Rb_tree_impl" = type { [8 x i8], %"struct.std::_Rb_tree_header" }
%"struct.std::_Rb_tree_header" = type { %"struct.std::_Rb_tree_node_base", i64 }
%"struct.std::_Rb_tree_node_base" = type { i32, ptr, ptr, ptr }
%"class.std::unique_ptr" = type { %"struct.std::__uniq_ptr_data" }
%"struct.std::__uniq_ptr_data" = type { %"class.std::__uniq_ptr_impl" }
%"class.std::__uniq_ptr_impl" = type { %"class.std::tuple" }
%"class.std::tuple" = type { %"struct.std::_Tuple_impl" }
%"struct.std::_Tuple_impl" = type { %"struct.std::_Head_base.9" }
%"struct.std::_Head_base.9" = type { ptr }
%"class.llvm::StringMap" = type { %"class.llvm::StringMapImpl" }
%"class.llvm::StringMapImpl" = type { ptr, i32, i32, i32, i32 }
%"struct.clang::installapi::DylibVerifier::VerifierContext" = type { %"class.llvm::MachO::Target", ptr, i32, i8, i8, ptr }
%"class.llvm::MachO::Target" = type { i8, i32, %"class.llvm::VersionTuple" }
%"class.llvm::VersionTuple" = type { i64, i64 }
%"class.llvm::SmallVector.10" = type { %"class.llvm::SmallVectorImpl.11", %"struct.llvm::SmallVectorStorage.14" }
%"class.llvm::SmallVectorImpl.11" = type { %"class.llvm::SmallVectorTemplateBase.12" }
%"class.llvm::SmallVectorTemplateBase.12" = type { %"class.llvm::SmallVectorTemplateCommon.13" }
%"class.llvm::SmallVectorTemplateCommon.13" = type { %"class.llvm::SmallVectorBase" }
%"struct.llvm::SmallVectorStorage.14" = type { [96 x i8] }
%"struct.clang::installapi::FrontendAttrs" = type { %"struct.clang::AvailabilityInfo", ptr, %"class.clang::SourceLocation", i32 }
%"struct.clang::AvailabilityInfo" = type <{ %"class.llvm::SmallString", %"class.llvm::VersionTuple", %"class.llvm::VersionTuple", %"class.llvm::VersionTuple", i8, i8, i8, [5 x i8] }>
%"class.llvm::SmallString" = type { %"class.llvm::SmallVector.74" }
%"class.llvm::SmallVector.74" = type { %"class.llvm::SmallVectorImpl.75", %"struct.llvm::SmallVectorStorage.79" }
%"class.llvm::SmallVectorImpl.75" = type { %"class.llvm::SmallVectorTemplateBase.76" }
%"class.llvm::SmallVectorTemplateBase.76" = type { %"class.llvm::SmallVectorTemplateCommon.77" }
%"class.llvm::SmallVectorTemplateCommon.77" = type { %"class.llvm::SmallVectorBase.78" }
%"class.llvm::SmallVectorBase.78" = type { ptr, i64, i64 }
%"struct.llvm::SmallVectorStorage.79" = type { [32 x i8] }
%"class.clang::SourceLocation" = type { i32 }
%"class.llvm::function_ref" = type { ptr, i64 }
%class.anon.218 = type { ptr, ptr, ptr, ptr }
%class.anon.219 = type { ptr, ptr, ptr, ptr }

; Function Attrs: mustprogress nounwind uwtable
define linkonce_odr hidden noundef zeroext i1 @_ZNK5clang16AvailabilityInfo28isUnconditionallyUnavailableEv(ptr noundef nonnull align 8 dereferenceable(107) %0) #0 comdat align 2 {
  %2 = alloca ptr, align 8
  store ptr %0, ptr %2, align 8
  %3 = load ptr, ptr %2, align 8
  %4 = getelementptr inbounds nuw %"struct.clang::AvailabilityInfo", ptr %3, i32 0, i32 6
  %5 = load i8, ptr %4, align 2
  %6 = trunc i8 %5 to i1
  ret i1 %6
}

; Function Attrs: mustprogress nounwind uwtable
define internal void @"_ZN4llvm12function_refIFvvEEC2IZN5clang10installapi13DylibVerifier19compareAvailabilityEPKNS_5MachO6RecordERNS6_13SymbolContextESA_E3$_1EEOT_PNSt9enable_ifIXntsr3std7is_sameINS_12remove_cvrefISE_E4typeES2_EE5valueEvE4typeEPNSG_IXooL_ZNSt17integral_constantIbLb1EE5valueEEsr3std14is_convertibleIDTclclsr3stdE7declvalISE_EEEEvEE5valueEvE4typeE"(ptr noundef nonnull align 8 dereferenceable(16) %0, ptr noundef nonnull align 8 dereferenceable(32) %1, ptr noundef %2, ptr noundef %3) unnamed_addr #0 align 2 {
  %5 = alloca ptr, align 8
  %6 = alloca ptr, align 8
  %7 = alloca ptr, align 8
  %8 = alloca ptr, align 8
  store ptr %0, ptr %5, align 8
  store ptr %1, ptr %6, align 8
  store ptr %2, ptr %7, align 8
  store ptr %3, ptr %8, align 8
  %9 = load ptr, ptr %5, align 8
  %10 = getelementptr inbounds nuw %"class.llvm::function_ref", ptr %9, i32 0, i32 0
  store ptr @"_ZN4llvm12function_refIFvvEE11callback_fnIZN5clang10installapi13DylibVerifier19compareAvailabilityEPKNS_5MachO6RecordERNS6_13SymbolContextESA_E3$_1EEvl", ptr %10, align 8
  %11 = getelementptr inbounds nuw %"class.llvm::function_ref", ptr %9, i32 0, i32 1
  %12 = load ptr, ptr %6, align 8
  %13 = ptrtoint ptr %12 to i64
  store i64 %13, ptr %11, align 8
  ret void
}

; Function Attrs: mustprogress nounwind uwtable
define internal void @"_ZN4llvm12function_refIFvvEEC2IZN5clang10installapi13DylibVerifier19compareAvailabilityEPKNS_5MachO6RecordERNS6_13SymbolContextESA_E3$_0EEOT_PNSt9enable_ifIXntsr3std7is_sameINS_12remove_cvrefISE_E4typeES2_EE5valueEvE4typeEPNSG_IXooL_ZNSt17integral_constantIbLb1EE5valueEEsr3std14is_convertibleIDTclclsr3stdE7declvalISE_EEEEvEE5valueEvE4typeE"(ptr noundef nonnull align 8 dereferenceable(16) %0, ptr noundef nonnull align 8 dereferenceable(32) %1, ptr noundef %2, ptr noundef %3) unnamed_addr #0 align 2 {
  %5 = alloca ptr, align 8
  %6 = alloca ptr, align 8
  %7 = alloca ptr, align 8
  %8 = alloca ptr, align 8
  store ptr %0, ptr %5, align 8
  store ptr %1, ptr %6, align 8
  store ptr %2, ptr %7, align 8
  store ptr %3, ptr %8, align 8
  %9 = load ptr, ptr %5, align 8
  %10 = getelementptr inbounds nuw %"class.llvm::function_ref", ptr %9, i32 0, i32 0
  store ptr @"_ZN4llvm12function_refIFvvEE11callback_fnIZN5clang10installapi13DylibVerifier19compareAvailabilityEPKNS_5MachO6RecordERNS6_13SymbolContextESA_E3$_0EEvl", ptr %10, align 8
  %11 = getelementptr inbounds nuw %"class.llvm::function_ref", ptr %9, i32 0, i32 1
  %12 = load ptr, ptr %6, align 8
  %13 = ptrtoint ptr %12 to i64
  store i64 %13, ptr %11, align 8
  ret void
}

; Function Attrs: mustprogress nounwind uwtable
define linkonce_odr hidden noundef zeroext i1 @_ZNK5clang16AvailabilityInfo13isUnavailableEv(ptr noundef nonnull align 8 dereferenceable(107) %0) #0 comdat align 2 {
  %2 = alloca ptr, align 8
  store ptr %0, ptr %2, align 8
  %3 = load ptr, ptr %2, align 8
  %4 = getelementptr inbounds nuw %"struct.clang::AvailabilityInfo", ptr %3, i32 0, i32 4
  %5 = load i8, ptr %4, align 8
  %6 = trunc i8 %5 to i1
  br i1 %6, label %9, label %7

7:                                                ; preds = %1
  %8 = call noundef zeroext i1 @_ZNK5clang16AvailabilityInfo28isUnconditionallyUnavailableEv(ptr noundef nonnull align 8 dereferenceable(107) %3)
  br label %9

9:                                                ; preds = %7, %1
  %10 = phi i1 [ true, %1 ], [ %8, %7 ]
  ret i1 %10
}

; Function Attrs: mustprogress nounwind uwtable
define dso_local noundef i32 @_ZN5clang10installapi13DylibVerifier19compareAvailabilityEPKN4llvm5MachO6RecordERNS1_13SymbolContextES6_(ptr noundef nonnull align 8 dereferenceable(4088) %0, ptr noundef %1, ptr noundef nonnull align 8 dereferenceable(50) %2, ptr noundef %3) #0 align 2 {
  %5 = alloca i32, align 4
  %6 = alloca ptr, align 8
  %7 = alloca ptr, align 8
  %8 = alloca ptr, align 8
  %9 = alloca ptr, align 8
  %10 = alloca i8, align 1
  %11 = alloca %"class.llvm::function_ref", align 8
  %12 = alloca %class.anon.218, align 8
  %13 = alloca %"class.llvm::function_ref", align 8
  %14 = alloca %class.anon.219, align 8
  store ptr %0, ptr %6, align 8
  store ptr %1, ptr %7, align 8
  store ptr %2, ptr %8, align 8
  store ptr %3, ptr %9, align 8
  %15 = load ptr, ptr %6, align 8
  %16 = load ptr, ptr %8, align 8
  %17 = getelementptr inbounds nuw %"struct.clang::installapi::DylibVerifier::SymbolContext", ptr %16, i32 0, i32 3
  %18 = load ptr, ptr %17, align 8
  %19 = getelementptr inbounds nuw %"struct.clang::installapi::FrontendAttrs", ptr %18, i32 0, i32 0
  %20 = call noundef zeroext i1 @_ZNK5clang16AvailabilityInfo13isUnavailableEv(ptr noundef nonnull align 8 dereferenceable(107) %19)
  br i1 %20, label %22, label %21

21:                                               ; preds = %4
  store i32 2, ptr %5, align 4
  br label %61

22:                                               ; preds = %4
  %23 = load ptr, ptr %7, align 8
  %24 = load ptr, ptr %8, align 8
  %25 = call noundef zeroext i1 @_ZN5clang10installapi13DylibVerifier32shouldIgnoreZipperedAvailabilityEPKN4llvm5MachO6RecordERNS1_13SymbolContextE(ptr noundef nonnull align 8 dereferenceable(4088) %15, ptr noundef %23, ptr noundef nonnull align 8 dereferenceable(50) %24)
  br i1 %25, label %26, label %27

26:                                               ; preds = %22
  store i32 1, ptr %5, align 4
  br label %61

27:                                               ; preds = %22
  %28 = load ptr, ptr %8, align 8
  %29 = getelementptr inbounds nuw %"struct.clang::installapi::DylibVerifier::SymbolContext", ptr %28, i32 0, i32 3
  %30 = load ptr, ptr %29, align 8
  %31 = getelementptr inbounds nuw %"struct.clang::installapi::FrontendAttrs", ptr %30, i32 0, i32 0
  %32 = call noundef zeroext i1 @_ZNK5clang16AvailabilityInfo13isUnavailableEv(ptr noundef nonnull align 8 dereferenceable(107) %31)
  %33 = zext i1 %32 to i8
  store i8 %33, ptr %10, align 1
  %34 = getelementptr inbounds nuw %"class.clang::installapi::DylibVerifier", ptr %15, i32 0, i32 4
  %35 = load i32, ptr %34, align 8
  switch i32 %35, label %60 [
    i32 2, label %36
    i32 3, label %47
    i32 1, label %58
    i32 0, label %59
  ]

36:                                               ; preds = %27
  %37 = getelementptr inbounds nuw %"class.clang::installapi::DylibVerifier", ptr %15, i32 0, i32 10
  %38 = getelementptr inbounds nuw %class.anon.218, ptr %12, i32 0, i32 0
  store ptr %15, ptr %38, align 8
  %39 = getelementptr inbounds nuw %class.anon.218, ptr %12, i32 0, i32 1
  %40 = load ptr, ptr %8, align 8
  store ptr %40, ptr %39, align 8
  %41 = getelementptr inbounds nuw %class.anon.218, ptr %12, i32 0, i32 2
  store ptr %7, ptr %41, align 8
  %42 = getelementptr inbounds nuw %class.anon.218, ptr %12, i32 0, i32 3
  store ptr %10, ptr %42, align 8
  call void @"_ZN4llvm12function_refIFvvEEC2IZN5clang10installapi13DylibVerifier19compareAvailabilityEPKNS_5MachO6RecordERNS6_13SymbolContextESA_E3$_0EEOT_PNSt9enable_ifIXntsr3std7is_sameINS_12remove_cvrefISE_E4typeES2_EE5valueEvE4typeEPNSG_IXooL_ZNSt17integral_constantIbLb1EE5valueEEsr3std14is_convertibleIDTclclsr3stdE7declvalISE_EEEEvEE5valueEvE4typeE"(ptr noundef nonnull align 8 dereferenceable(16) %11, ptr noundef nonnull align 8 dereferenceable(32) %12, ptr noundef null, ptr noundef null)
  %43 = getelementptr inbounds nuw { ptr, i64 }, ptr %11, i32 0, i32 0
  %44 = load ptr, ptr %43, align 8
  %45 = getelementptr inbounds nuw { ptr, i64 }, ptr %11, i32 0, i32 1
  %46 = load i64, ptr %45, align 8
  call void @_ZN5clang10installapi13DylibVerifier15VerifierContext8emitDiagEN4llvm12function_refIFvvEEEPNS3_5MachO9RecordLocE(ptr noundef nonnull align 8 dereferenceable(48) %37, ptr %44, i64 %46, ptr noundef null)
  store i32 1, ptr %5, align 4
  br label %61

47:                                               ; preds = %27
  %48 = getelementptr inbounds nuw %"class.clang::installapi::DylibVerifier", ptr %15, i32 0, i32 10
  %49 = getelementptr inbounds nuw %class.anon.219, ptr %14, i32 0, i32 0
  store ptr %15, ptr %49, align 8
  %50 = getelementptr inbounds nuw %class.anon.219, ptr %14, i32 0, i32 1
  %51 = load ptr, ptr %8, align 8
  store ptr %51, ptr %50, align 8
  %52 = getelementptr inbounds nuw %class.anon.219, ptr %14, i32 0, i32 2
  store ptr %7, ptr %52, align 8
  %53 = getelementptr inbounds nuw %class.anon.219, ptr %14, i32 0, i32 3
  store ptr %10, ptr %53, align 8
  call void @"_ZN4llvm12function_refIFvvEEC2IZN5clang10installapi13DylibVerifier19compareAvailabilityEPKNS_5MachO6RecordERNS6_13SymbolContextESA_E3$_1EEOT_PNSt9enable_ifIXntsr3std7is_sameINS_12remove_cvrefISE_E4typeES2_EE5valueEvE4typeEPNSG_IXooL_ZNSt17integral_constantIbLb1EE5valueEEsr3std14is_convertibleIDTclclsr3stdE7declvalISE_EEEEvEE5valueEvE4typeE"(ptr noundef nonnull align 8 dereferenceable(16) %13, ptr noundef nonnull align 8 dereferenceable(32) %14, ptr noundef null, ptr noundef null)
  %54 = getelementptr inbounds nuw { ptr, i64 }, ptr %13, i32 0, i32 0
  %55 = load ptr, ptr %54, align 8
  %56 = getelementptr inbounds nuw { ptr, i64 }, ptr %13, i32 0, i32 1
  %57 = load i64, ptr %56, align 8
  call void @_ZN5clang10installapi13DylibVerifier15VerifierContext8emitDiagEN4llvm12function_refIFvvEEEPNS3_5MachO9RecordLocE(ptr noundef nonnull align 8 dereferenceable(48) %48, ptr %55, i64 %57, ptr noundef null)
  store i32 3, ptr %5, align 4
  br label %61

58:                                               ; preds = %27
  store i32 1, ptr %5, align 4
  br label %61

59:                                               ; preds = %27
  unreachable

60:                                               ; preds = %27
  unreachable

61:                                               ; preds = %58, %47, %36, %26, %21
  %62 = load i32, ptr %5, align 4
  ret i32 %62
}