; Function Attrs: mustprogress nounwind uwtable
define dso_local noundef range(i32 1, 4) i32 @_ZN5clang10installapi13DylibVerifier19compareAvailabilityEPKN4llvm5MachO6RecordERNS1_13SymbolContextES6_(ptr noundef nonnull align 8 dereferenceable(4088) %0, ptr noundef %1, ptr noundef nonnull align 8 dereferenceable(50) %2, ptr readnone captures(none) %3) local_unnamed_addr #0 align 2 {
  %5 = alloca ptr, align 8
  %6 = alloca i8, align 1
  %7 = alloca %class.anon.218, align 8
  %8 = alloca %class.anon.219, align 8
  store ptr %1, ptr %5, align 8
  %9 = getelementptr inbounds nuw i8, ptr %2, i64 40
  %10 = load ptr, ptr %9, align 8
  %11 = getelementptr inbounds nuw i8, ptr %10, i64 104
  %12 = load i8, ptr %11, align 8
  %13 = trunc i8 %12 to i1
  %14 = getelementptr inbounds nuw i8, ptr %10, i64 106
  %15 = load i8, ptr %14, align 2
  %16 = trunc i8 %15 to i1
  %17 = select i1 %13, i1 true, i1 %16
  %.sink16.sroa.gep = getelementptr inbounds nuw i8, ptr %8, i64 8
  %.sink16.sroa.gep17 = getelementptr inbounds nuw i8, ptr %7, i64 8
  %.sink16.sroa.gep19 = getelementptr inbounds nuw i8, ptr %8, i64 16
  %.sink16.sroa.gep20 = getelementptr inbounds nuw i8, ptr %7, i64 16
  %.sink16.sroa.gep22 = getelementptr inbounds nuw i8, ptr %8, i64 24
  %.sink16.sroa.gep23 = getelementptr inbounds nuw i8, ptr %7, i64 24
  br i1 %17, label %18, label %35

18:                                               ; preds = %4
  %19 = tail call noundef zeroext i1 @_ZN5clang10installapi13DylibVerifier32shouldIgnoreZipperedAvailabilityEPKN4llvm5MachO6RecordERNS1_13SymbolContextE(ptr noundef nonnull align 8 dereferenceable(4088) %0, ptr poison, ptr noundef nonnull align 8 dereferenceable(50) %2)
  br i1 %19, label %35, label %20

20:                                               ; preds = %18
  %21 = load ptr, ptr %9, align 8
  %22 = getelementptr inbounds nuw i8, ptr %21, i64 104
  %23 = load i8, ptr %22, align 8
  %24 = trunc i8 %23 to i1
  %25 = getelementptr inbounds nuw i8, ptr %21, i64 106
  %26 = load i8, ptr %25, align 2
  %27 = and i8 %26, 1
  %28 = select i1 %24, i8 1, i8 %27
  store i8 %28, ptr %6, align 1
  %29 = getelementptr inbounds nuw i8, ptr %0, i64 3864
  %30 = load i32, ptr %29, align 8
  switch i32 %30, label %32 [
    i32 2, label %.sink.split
    i32 3, label %31
    i32 1, label %35
  ]

31:                                               ; preds = %20
  br label %.sink.split

32:                                               ; preds = %20
  unreachable

.sink.split:                                      ; preds = %20, %31
  %.sink16.sroa.phi = phi ptr [ %.sink16.sroa.gep, %31 ], [ %.sink16.sroa.gep17, %20 ]
  %.sink16.sroa.phi18 = phi ptr [ %.sink16.sroa.gep19, %31 ], [ %.sink16.sroa.gep20, %20 ]
  %.sink16.sroa.phi21 = phi ptr [ %.sink16.sroa.gep22, %31 ], [ %.sink16.sroa.gep23, %20 ]
  %.sink16 = phi ptr [ %8, %31 ], [ %7, %20 ]
  %"_ZN4llvm12function_refIFvvEE11callback_fnIZN5clang10installapi13DylibVerifier19compareAvailabilityEPKNS_5MachO6RecordERNS6_13SymbolContextESA_E3$_1EEvl.sink" = phi ptr [ @"_ZN4llvm12function_refIFvvEE11callback_fnIZN5clang10installapi13DylibVerifier19compareAvailabilityEPKNS_5MachO6RecordERNS6_13SymbolContextESA_E3$_1EEvl", %31 ], [ @"_ZN4llvm12function_refIFvvEE11callback_fnIZN5clang10installapi13DylibVerifier19compareAvailabilityEPKNS_5MachO6RecordERNS6_13SymbolContextESA_E3$_0EEvl", %20 ]
  %.0.ph = phi i32 [ 3, %31 ], [ 1, %20 ]
  %33 = getelementptr inbounds nuw i8, ptr %0, i64 3920
  store ptr %0, ptr %.sink16, align 8
  store ptr %2, ptr %.sink16.sroa.phi, align 8
  store ptr %5, ptr %.sink16.sroa.phi18, align 8
  store ptr %6, ptr %.sink16.sroa.phi21, align 8
  %34 = ptrtoint ptr %.sink16 to i64
  call void @_ZN5clang10installapi13DylibVerifier15VerifierContext8emitDiagEN4llvm12function_refIFvvEEEPNS3_5MachO9RecordLocE(ptr noundef nonnull align 8 dereferenceable(48) %33, ptr nonnull %"_ZN4llvm12function_refIFvvEE11callback_fnIZN5clang10installapi13DylibVerifier19compareAvailabilityEPKNS_5MachO6RecordERNS6_13SymbolContextESA_E3$_1EEvl.sink", i64 %34, ptr noundef null)
  br label %35

35:                                               ; preds = %.sink.split, %20, %18, %4
  %.0 = phi i32 [ 2, %4 ], [ 1, %18 ], [ %30, %20 ], [ %.0.ph, %.sink.split ]
  ret i32 %.0
}